target datalayout = "e-m:e-p270:32:32-p271:32:32-p272:64:64-i64:64-i128:128-f80:128-n8:16:32:64-S128"
target triple = "x86_64-unknown-linux-gnu"

%"class.re2::Regexp" = type { i8, i8, i16, i16, i16, %union.anon, ptr, %union.anon.0 }
%union.anon = type { ptr }
%union.anon.0 = type { %struct.anon.1 }
%struct.anon.1 = type { i32, ptr }
%struct.anon.2 = type { i32, ptr }

; Function Attrs: mustprogress nounwind uwtable
define linkonce_odr noundef i32 @_ZN3re26Regexp4runeEv(ptr noundef nonnull align 8 dereferenceable(40) %this) #3 comdat align 2 {
entry:
  %this.addr = alloca ptr, align 8
  store ptr %this, ptr %this.addr, align 8
  %this1 = load ptr, ptr %this.addr, align 8
  %0 = getelementptr inbounds %"class.re2::Regexp", ptr %this1, i32 0, i32 7
  %1 = load i32, ptr %0, align 8
  ret i32 %1
}

; Function Attrs: mustprogress nounwind uwtable
define linkonce_odr noundef ptr @_ZN3re26Regexp5runesEv(ptr noundef nonnull align 8 dereferenceable(40) %this) #3 comdat align 2 {
entry:
  %this.addr = alloca ptr, align 8
  store ptr %this, ptr %this.addr, align 8
  %this1 = load ptr, ptr %this.addr, align 8
  %0 = getelementptr inbounds %"class.re2::Regexp", ptr %this1, i32 0, i32 7
  %runes_ = getelementptr inbounds %struct.anon.2, ptr %0, i32 0, i32 1
  %1 = load ptr, ptr %runes_, align 8
  ret ptr %1
}

; Function Attrs: mustprogress nounwind uwtable
define linkonce_odr noundef i32 @_ZN3re2anENS_6Regexp10ParseFlagsES1_(i32 noundef %a, i32 noundef %b) #3 comdat {
entry:
  %a.addr = alloca i32, align 4
  %b.addr = alloca i32, align 4
  store i32 %a, ptr %a.addr, align 4
  store i32 %b, ptr %b.addr, align 4
  %0 = load i32, ptr %a.addr, align 4
  %1 = load i32, ptr %b.addr, align 4
  %and = and i32 %0, %1
  ret i32 %and
}

; Function Attrs: mustprogress nounwind uwtable
define linkonce_odr noundef i32 @_ZN3re26Regexp11parse_flagsEv(ptr noundef nonnull align 8 dereferenceable(40) %this) #3 comdat align 2 {
entry:
  %this.addr = alloca ptr, align 8
  store ptr %this, ptr %this.addr, align 8
  %this1 = load ptr, ptr %this.addr, align 8
  %parse_flags_ = getelementptr inbounds %"class.re2::Regexp", ptr %this1, i32 0, i32 2
  %0 = load i16, ptr %parse_flags_, align 2
  %conv = zext i16 %0 to i32
  ret i32 %conv
}

; Function Attrs: mustprogress nounwind uwtable
define linkonce_odr noundef ptr @_ZN3re26Regexp3subEv(ptr noundef nonnull align 8 dereferenceable(40) %this) #3 comdat align 2 {
entry:
  %retval = alloca ptr, align 8
  %this.addr = alloca ptr, align 8
  store ptr %this, ptr %this.addr, align 8
  %this1 = load ptr, ptr %this.addr, align 8
  %nsub_ = getelementptr inbounds %"class.re2::Regexp", ptr %this1, i32 0, i32 4
  %0 = load i16, ptr %nsub_, align 2
  %conv = zext i16 %0 to i32
  %cmp = icmp sle i32 %conv, 1
  br i1 %cmp, label %if.then, label %if.else

if.then:                                          ; preds = %entry
  %1 = getelementptr inbounds %"class.re2::Regexp", ptr %this1, i32 0, i32 5
  store ptr %1, ptr %retval, align 8
  br label %return

if.else:                                          ; preds = %entry
  %2 = getelementptr inbounds %"class.re2::Regexp", ptr %this1, i32 0, i32 5
  %3 = load ptr, ptr %2, align 8
  store ptr %3, ptr %retval, align 8
  br label %return

return:                                           ; preds = %if.else, %if.then
  %4 = load ptr, ptr %retval, align 8
  ret ptr %4
}

; Function Attrs: mustprogress nounwind uwtable
define linkonce_odr noundef i32 @_ZN3re26Regexp2opEv(ptr noundef nonnull align 8 dereferenceable(40) %this) #3 comdat align 2 {
entry:
  %this.addr = alloca ptr, align 8
  store ptr %this, ptr %this.addr, align 8
  %this1 = load ptr, ptr %this.addr, align 8
  %op_ = getelementptr inbounds %"class.re2::Regexp", ptr %this1, i32 0, i32 0
  %0 = load i8, ptr %op_, align 8
  %conv = zext i8 %0 to i32
  ret i32 %conv
}

; Function Attrs: mustprogress uwtable
define noundef zeroext i1 @_ZN3re214CoalesceWalker11CanCoalesceEPNS_6RegexpES2_(ptr noundef %r1, ptr noundef %r2) #0 align 2 {
entry:
  %retval = alloca i1, align 1
  %r1.addr = alloca ptr, align 8
  %r2.addr = alloca ptr, align 8
  store ptr %r1, ptr %r1.addr, align 8
  store ptr %r2, ptr %r2.addr, align 8
  %0 = load ptr, ptr %r1.addr, align 8
  %call = call noundef i32 @_ZN3re26Regexp2opEv(ptr noundef nonnull align 8 dereferenceable(40) %0)
  %cmp = icmp eq i32 %call, 7
  br i1 %cmp, label %land.lhs.true, label %lor.lhs.false

lor.lhs.false:                                    ; preds = %entry
  %1 = load ptr, ptr %r1.addr, align 8
  %call1 = call noundef i32 @_ZN3re26Regexp2opEv(ptr noundef nonnull align 8 dereferenceable(40) %1)
  %cmp2 = icmp eq i32 %call1, 8
  br i1 %cmp2, label %land.lhs.true, label %lor.lhs.false3

lor.lhs.false3:                                   ; preds = %lor.lhs.false
  %2 = load ptr, ptr %r1.addr, align 8
  %call4 = call noundef i32 @_ZN3re26Regexp2opEv(ptr noundef nonnull align 8 dereferenceable(40) %2)
  %cmp5 = icmp eq i32 %call4, 9
  br i1 %cmp5, label %land.lhs.true, label %lor.lhs.false6

lor.lhs.false6:                                   ; preds = %lor.lhs.false3
  %3 = load ptr, ptr %r1.addr, align 8
  %call7 = call noundef i32 @_ZN3re26Regexp2opEv(ptr noundef nonnull align 8 dereferenceable(40) %3)
  %cmp8 = icmp eq i32 %call7, 10
  br i1 %cmp8, label %land.lhs.true, label %if.end80

land.lhs.true:                                    ; preds = %lor.lhs.false6, %lor.lhs.false3, %lor.lhs.false, %entry
  %4 = load ptr, ptr %r1.addr, align 8
  %call9 = call noundef ptr @_ZN3re26Regexp3subEv(ptr noundef nonnull align 8 dereferenceable(40) %4)
  %arrayidx = getelementptr inbounds ptr, ptr %call9, i64 0
  %5 = load ptr, ptr %arrayidx, align 8
  %call10 = call noundef i32 @_ZN3re26Regexp2opEv(ptr noundef nonnull align 8 dereferenceable(40) %5)
  %cmp11 = icmp eq i32 %call10, 3
  br i1 %cmp11, label %if.then, label %lor.lhs.false12

lor.lhs.false12:                                  ; preds = %land.lhs.true
  %6 = load ptr, ptr %r1.addr, align 8
  %call13 = call noundef ptr @_ZN3re26Regexp3subEv(ptr noundef nonnull align 8 dereferenceable(40) %6)
  %arrayidx14 = getelementptr inbounds ptr, ptr %call13, i64 0
  %7 = load ptr, ptr %arrayidx14, align 8
  %call15 = call noundef i32 @_ZN3re26Regexp2opEv(ptr noundef nonnull align 8 dereferenceable(40) %7)
  %cmp16 = icmp eq i32 %call15, 20
  br i1 %cmp16, label %if.then, label %lor.lhs.false17

lor.lhs.false17:                                  ; preds = %lor.lhs.false12
  %8 = load ptr, ptr %r1.addr, align 8
  %call18 = call noundef ptr @_ZN3re26Regexp3subEv(ptr noundef nonnull align 8 dereferenceable(40) %8)
  %arrayidx19 = getelementptr inbounds ptr, ptr %call18, i64 0
  %9 = load ptr, ptr %arrayidx19, align 8
  %call20 = call noundef i32 @_ZN3re26Regexp2opEv(ptr noundef nonnull align 8 dereferenceable(40) %9)
  %cmp21 = icmp eq i32 %call20, 12
  br i1 %cmp21, label %if.then, label %lor.lhs.false22

lor.lhs.false22:                                  ; preds = %lor.lhs.false17
  %10 = load ptr, ptr %r1.addr, align 8
  %call23 = call noundef ptr @_ZN3re26Regexp3subEv(ptr noundef nonnull align 8 dereferenceable(40) %10)
  %arrayidx24 = getelementptr inbounds ptr, ptr %call23, i64 0
  %11 = load ptr, ptr %arrayidx24, align 8
  %call25 = call noundef i32 @_ZN3re26Regexp2opEv(ptr noundef nonnull align 8 dereferenceable(40) %11)
  %cmp26 = icmp eq i32 %call25, 13
  br i1 %cmp26, label %if.then, label %if.end80

if.then:                                          ; preds = %lor.lhs.false22, %lor.lhs.false17, %lor.lhs.false12, %land.lhs.true
  %12 = load ptr, ptr %r2.addr, align 8
  %call27 = call noundef i32 @_ZN3re26Regexp2opEv(ptr noundef nonnull align 8 dereferenceable(40) %12)
  %cmp28 = icmp eq i32 %call27, 7
  br i1 %cmp28, label %land.lhs.true38, label %lor.lhs.false29

lor.lhs.false29:                                  ; preds = %if.then
  %13 = load ptr, ptr %r2.addr, align 8
  %call30 = call noundef i32 @_ZN3re26Regexp2opEv(ptr noundef nonnull align 8 dereferenceable(40) %13)
  %cmp31 = icmp eq i32 %call30, 8
  br i1 %cmp31, label %land.lhs.true38, label %lor.lhs.false32

lor.lhs.false32:                                  ; preds = %lor.lhs.false29
  %14 = load ptr, ptr %r2.addr, align 8
  %call33 = call noundef i32 @_ZN3re26Regexp2opEv(ptr noundef nonnull align 8 dereferenceable(40) %14)
  %cmp34 = icmp eq i32 %call33, 9
  br i1 %cmp34, label %land.lhs.true38, label %lor.lhs.false35

lor.lhs.false35:                                  ; preds = %lor.lhs.false32
  %15 = load ptr, ptr %r2.addr, align 8
  %call36 = call noundef i32 @_ZN3re26Regexp2opEv(ptr noundef nonnull align 8 dereferenceable(40) %15)
  %cmp37 = icmp eq i32 %call36, 10
  br i1 %cmp37, label %land.lhs.true38, label %if.end

land.lhs.true38:                                  ; preds = %lor.lhs.false35, %lor.lhs.false32, %lor.lhs.false29, %if.then
  %16 = load ptr, ptr %r1.addr, align 8
  %call39 = call noundef ptr @_ZN3re26Regexp3subEv(ptr noundef nonnull align 8 dereferenceable(40) %16)
  %arrayidx40 = getelementptr inbounds ptr, ptr %call39, i64 0
  %17 = load ptr, ptr %arrayidx40, align 8
  %18 = load ptr, ptr %r2.addr, align 8
  %call41 = call noundef ptr @_ZN3re26Regexp3subEv(ptr noundef nonnull align 8 dereferenceable(40) %18)
  %arrayidx42 = getelementptr inbounds ptr, ptr %call41, i64 0
  %19 = load ptr, ptr %arrayidx42, align 8
  %call43 = call noundef zeroext i1 @_ZN3re26Regexp5EqualEPS0_S1_(ptr noundef %17, ptr noundef %19)
  br i1 %call43, label %land.lhs.true44, label %if.end

land.lhs.true44:                                  ; preds = %land.lhs.true38
  %20 = load ptr, ptr %r1.addr, align 8
  %call45 = call noundef i32 @_ZN3re26Regexp11parse_flagsEv(ptr noundef nonnull align 8 dereferenceable(40) %20)
  %call46 = call noundef i32 @_ZN3re2anENS_6Regexp10ParseFlagsES1_(i32 noundef %call45, i32 noundef 64)
  %21 = load ptr, ptr %r2.addr, align 8
  %call47 = call noundef i32 @_ZN3re26Regexp11parse_flagsEv(ptr noundef nonnull align 8 dereferenceable(40) %21)
  %call48 = call noundef i32 @_ZN3re2anENS_6Regexp10ParseFlagsES1_(i32 noundef %call47, i32 noundef 64)
  %cmp49 = icmp eq i32 %call46, %call48
  br i1 %cmp49, label %if.then50, label %if.end

if.then50:                                        ; preds = %land.lhs.true44
  store i1 true, ptr %retval, align 1
  br label %return

if.end:                                           ; preds = %land.lhs.true44, %land.lhs.true38, %lor.lhs.false35
  %22 = load ptr, ptr %r1.addr, align 8
  %call51 = call noundef ptr @_ZN3re26Regexp3subEv(ptr noundef nonnull align 8 dereferenceable(40) %22)
  %arrayidx52 = getelementptr inbounds ptr, ptr %call51, i64 0
  %23 = load ptr, ptr %arrayidx52, align 8
  %24 = load ptr, ptr %r2.addr, align 8
  %call53 = call noundef zeroext i1 @_ZN3re26Regexp5EqualEPS0_S1_(ptr noundef %23, ptr noundef %24)
  br i1 %call53, label %if.then54, label %if.end55

if.then54:                                        ; preds = %if.end
  store i1 true, ptr %retval, align 1
  br label %return

if.end55:                                         ; preds = %if.end
  %25 = load ptr, ptr %r1.addr, align 8
  %call56 = call noundef ptr @_ZN3re26Regexp3subEv(ptr noundef nonnull align 8 dereferenceable(40) %25)
  %arrayidx57 = getelementptr inbounds ptr, ptr %call56, i64 0
  %26 = load ptr, ptr %arrayidx57, align 8
  %call58 = call noundef i32 @_ZN3re26Regexp2opEv(ptr noundef nonnull align 8 dereferenceable(40) %26)
  %cmp59 = icmp eq i32 %call58, 3
  br i1 %cmp59, label %land.lhs.true60, label %if.end79

land.lhs.true60:                                  ; preds = %if.end55
  %27 = load ptr, ptr %r2.addr, align 8
  %call61 = call noundef i32 @_ZN3re26Regexp2opEv(ptr noundef nonnull align 8 dereferenceable(40) %27)
  %cmp62 = icmp eq i32 %call61, 4
  br i1 %cmp62, label %land.lhs.true63, label %if.end79

land.lhs.true63:                                  ; preds = %land.lhs.true60
  %28 = load ptr, ptr %r2.addr, align 8
  %call64 = call noundef ptr @_ZN3re26Regexp5runesEv(ptr noundef nonnull align 8 dereferenceable(40) %28)
  %arrayidx65 = getelementptr inbounds i32, ptr %call64, i64 0
  %29 = load i32, ptr %arrayidx65, align 4
  %30 = load ptr, ptr %r1.addr, align 8
  %call66 = call noundef ptr @_ZN3re26Regexp3subEv(ptr noundef nonnull align 8 dereferenceable(40) %30)
  %arrayidx67 = getelementptr inbounds ptr, ptr %call66, i64 0
  %31 = load ptr, ptr %arrayidx67, align 8
  %call68 = call noundef i32 @_ZN3re26Regexp4runeEv(ptr noundef nonnull align 8 dereferenceable(40) %31)
  %cmp69 = icmp eq i32 %29, %call68
  br i1 %cmp69, label %land.lhs.true70, label %if.end79

land.lhs.true70:                                  ; preds = %land.lhs.true63
  %32 = load ptr, ptr %r1.addr, align 8
  %call71 = call noundef ptr @_ZN3re26Regexp3subEv(ptr noundef nonnull align 8 dereferenceable(40) %32)
  %arrayidx72 = getelementptr inbounds ptr, ptr %call71, i64 0
  %33 = load ptr, ptr %arrayidx72, align 8
  %call73 = call noundef i32 @_ZN3re26Regexp11parse_flagsEv(ptr noundef nonnull align 8 dereferenceable(40) %33)
  %call74 = call noundef i32 @_ZN3re2anENS_6Regexp10ParseFlagsES1_(i32 noundef %call73, i32 noundef 1)
  %34 = load ptr, ptr %r2.addr, align 8
  %call75 = call noundef i32 @_ZN3re26Regexp11parse_flagsEv(ptr noundef nonnull align 8 dereferenceable(40) %34)
  %call76 = call noundef i32 @_ZN3re2anENS_6Regexp10ParseFlagsES1_(i32 noundef %call75, i32 noundef 1)
  %cmp77 = icmp eq i32 %call74, %call76
  br i1 %cmp77, label %if.then78, label %if.end79

if.then78:                                        ; preds = %land.lhs.true70
  store i1 true, ptr %retval, align 1
  br label %return

if.end79:                                         ; preds = %land.lhs.true70, %land.lhs.true63, %land.lhs.true60, %if.end55
  br label %if.end80

if.end80:                                         ; preds = %if.end79, %lor.lhs.false22, %lor.lhs.false6
  store i1 false, ptr %retval, align 1
  br label %return

return:                                           ; preds = %if.end80, %if.then78, %if.then54, %if.then50
  %35 = load i1, ptr %retval, align 1
  ret i1 %35
}