; Function Attrs: mustprogress uwtable
define noundef zeroext i1 @_ZN3re214CoalesceWalker11CanCoalesceEPNS_6RegexpES2_(ptr nocapture noundef readonly %r1, ptr noundef %r2) local_unnamed_addr #0 align 2 {
entry:
  %0 = load i8, ptr %r1, align 8
  %conv.i = zext i8 %0 to i32
  %conv.i.off = add nsw i32 %conv.i, -7
  %switch = icmp ult i32 %conv.i.off, 4
  br i1 %switch, label %land.lhs.true, label %if.end80

land.lhs.true:                                    ; preds = %entry
  %nsub_.i = getelementptr inbounds i8, ptr %r1, i64 6
  %1 = load i16, ptr %nsub_.i, align 2
  %cmp.i = icmp ult i16 %1, 2
  %2 = getelementptr inbounds i8, ptr %r1, i64 8
  %3 = load ptr, ptr %2, align 8
  %retval.0.i = select i1 %cmp.i, ptr %2, ptr %3
  %4 = load ptr, ptr %retval.0.i, align 8
  %5 = load i8, ptr %4, align 8
  switch i8 %5, label %if.end80 [
    i8 3, label %if.then
    i8 20, label %if.then
    i8 12, label %if.then
    i8 13, label %if.then
  ]

if.then:                                          ; preds = %land.lhs.true, %land.lhs.true, %land.lhs.true, %land.lhs.true
  %6 = load i8, ptr %r2, align 8
  %conv.i39 = zext i8 %6 to i32
  %conv.i39.off = add nsw i32 %conv.i39, -7
  %switch73 = icmp ult i32 %conv.i39.off, 4
  br i1 %switch73, label %land.lhs.true38, label %if.end

land.lhs.true38:                                  ; preds = %if.then
  %nsub_.i46 = getelementptr inbounds i8, ptr %r2, i64 6
  %7 = load i16, ptr %nsub_.i46, align 2
  %cmp.i47 = icmp ult i16 %7, 2
  %8 = getelementptr inbounds i8, ptr %r2, i64 8
  %9 = load ptr, ptr %8, align 8
  %retval.0.i48 = select i1 %cmp.i47, ptr %8, ptr %9
  %10 = load ptr, ptr %retval.0.i48, align 8
  %call43 = tail call noundef zeroext i1 @_ZN3re26Regexp5EqualEPS0_S1_(ptr noundef nonnull %4, ptr noundef %10)
  br i1 %call43, label %land.lhs.true44, label %if.end

land.lhs.true44:                                  ; preds = %land.lhs.true38
  %parse_flags_.i = getelementptr inbounds i8, ptr %r1, i64 2
  %11 = load i16, ptr %parse_flags_.i, align 2
  %parse_flags_.i50 = getelementptr inbounds i8, ptr %r2, i64 2
  %12 = load i16, ptr %parse_flags_.i50, align 2
  %13 = xor i16 %12, %11
  %14 = and i16 %13, 64
  %cmp49 = icmp eq i16 %14, 0
  br i1 %cmp49, label %return, label %if.end

if.end:                                           ; preds = %if.then, %land.lhs.true44, %land.lhs.true38
  %15 = load i16, ptr %nsub_.i, align 2
  %cmp.i54 = icmp ult i16 %15, 2
  %16 = load ptr, ptr %2, align 8
  %retval.0.i55 = select i1 %cmp.i54, ptr %2, ptr %16
  %17 = load ptr, ptr %retval.0.i55, align 8
  %call53 = tail call noundef zeroext i1 @_ZN3re26Regexp5EqualEPS0_S1_(ptr noundef %17, ptr noundef nonnull %r2)
  br i1 %call53, label %return, label %if.end55

if.end55:                                         ; preds = %if.end
  %18 = load i16, ptr %nsub_.i, align 2
  %cmp.i57 = icmp ult i16 %18, 2
  %19 = load ptr, ptr %2, align 8
  %retval.0.i58 = select i1 %cmp.i57, ptr %2, ptr %19
  %20 = load ptr, ptr %retval.0.i58, align 8
  %21 = load i8, ptr %20, align 8
  %cmp59 = icmp eq i8 %21, 3
  br i1 %cmp59, label %land.lhs.true60, label %if.end80

land.lhs.true60:                                  ; preds = %if.end55
  %22 = load i8, ptr %r2, align 8
  %cmp62 = icmp eq i8 %22, 4
  br i1 %cmp62, label %land.lhs.true63, label %if.end80

land.lhs.true63:                                  ; preds = %land.lhs.true60
  %runes_.i = getelementptr inbounds i8, ptr %r2, i64 32
  %23 = load ptr, ptr %runes_.i, align 8
  %24 = load i32, ptr %23, align 4
  %25 = getelementptr inbounds i8, ptr %20, i64 24
  %26 = load i32, ptr %25, align 8
  %cmp69 = icmp eq i32 %24, %26
  br i1 %cmp69, label %land.lhs.true70, label %if.end80

land.lhs.true70:                                  ; preds = %land.lhs.true63
  %parse_flags_.i67 = getelementptr inbounds i8, ptr %20, i64 2
  %27 = load i16, ptr %parse_flags_.i67, align 2
  %parse_flags_.i70 = getelementptr inbounds i8, ptr %r2, i64 2
  %28 = load i16, ptr %parse_flags_.i70, align 2
  %29 = xor i16 %28, %27
  %30 = and i16 %29, 1
  %cmp77 = icmp eq i16 %30, 0
  br i1 %cmp77, label %return, label %if.end80

if.end80:                                         ; preds = %entry, %land.lhs.true, %if.end55, %land.lhs.true60, %land.lhs.true63, %land.lhs.true70
  br label %return

return:                                           ; preds = %land.lhs.true70, %if.end, %land.lhs.true44, %if.end80
  %retval.0 = phi i1 [ false, %if.end80 ], [ true, %land.lhs.true44 ], [ true, %if.end ], [ true, %land.lhs.true70 ]
  ret i1 %retval.0
}